target datalayout = "e-m:e-p270:32:32-p271:32:32-p272:64:64-i64:64-i128:128-f80:128-n8:16:32:64-S128"
target triple = "x86_64-pc-linux-gnu"

@.str.18 = private unnamed_addr constant [6 x i8] c"never\00", align 1
@.str.19 = private unnamed_addr constant [7 x i8] c"always\00", align 1
@.str.20 = private unnamed_addr constant [5 x i8] c"auto\00", align 1

; Function Attrs: nounwind uwtable
define dso_local i32 @git_config_colorbool(ptr noundef %0, ptr noundef %1) #0 {
  %3 = alloca i32, align 4
  %4 = alloca ptr, align 8
  %5 = alloca ptr, align 8
  store ptr %0, ptr %4, align 8, !tbaa !4
  store ptr %1, ptr %5, align 8, !tbaa !4
  %6 = load ptr, ptr %5, align 8, !tbaa !4
  %7 = icmp ne ptr %6, null
  br i1 %7, label %8, label %24

8:                                                ; preds = %2
  %9 = load ptr, ptr %5, align 8, !tbaa !4
  %10 = call i32 @strcasecmp(ptr noundef %9, ptr noundef @.str.18) #10
  %11 = icmp ne i32 %10, 0
  br i1 %11, label %13, label %12

12:                                               ; preds = %8
  store i32 0, ptr %3, align 4
  br label %35

13:                                               ; preds = %8
  %14 = load ptr, ptr %5, align 8, !tbaa !4
  %15 = call i32 @strcasecmp(ptr noundef %14, ptr noundef @.str.19) #10
  %16 = icmp ne i32 %15, 0
  br i1 %16, label %18, label %17

17:                                               ; preds = %13
  store i32 1, ptr %3, align 4
  br label %35

18:                                               ; preds = %13
  %19 = load ptr, ptr %5, align 8, !tbaa !4
  %20 = call i32 @strcasecmp(ptr noundef %19, ptr noundef @.str.20) #10
  %21 = icmp ne i32 %20, 0
  br i1 %21, label %23, label %22

22:                                               ; preds = %18
  store i32 2, ptr %3, align 4
  br label %35

23:                                               ; preds = %18
  br label %24

24:                                               ; preds = %23, %2
  %25 = load ptr, ptr %4, align 8, !tbaa !4
  %26 = icmp ne ptr %25, null
  br i1 %26, label %28, label %27

27:                                               ; preds = %24
  store i32 -1, ptr %3, align 4
  br label %35

28:                                               ; preds = %24
  %29 = load ptr, ptr %4, align 8, !tbaa !4
  %30 = load ptr, ptr %5, align 8, !tbaa !4
  %31 = call i32 @git_config_bool(ptr noundef %29, ptr noundef %30)
  %32 = icmp ne i32 %31, 0
  br i1 %32, label %34, label %33

33:                                               ; preds = %28
  store i32 0, ptr %3, align 4
  br label %35

34:                                               ; preds = %28
  store i32 2, ptr %3, align 4
  br label %35

35:                                               ; preds = %34, %33, %27, %22, %17, %12
  %36 = load i32, ptr %3, align 4
  ret i32 %36
}