; Function Attrs: nounwind uwtable
define dso_local range(i32 -1, 3) i32 @git_config_colorbool(ptr noundef %0, ptr noundef %1) local_unnamed_addr #0 {
  %.not = icmp eq ptr %1, null
  br i1 %.not, label %9, label %3

3:                                                ; preds = %2
  %4 = tail call i32 @strcasecmp(ptr noundef nonnull %1, ptr noundef nonnull @.str.18) #14
  %.not9 = icmp eq i32 %4, 0
  br i1 %.not9, label %12, label %5

5:                                                ; preds = %3
  %6 = tail call i32 @strcasecmp(ptr noundef nonnull %1, ptr noundef nonnull @.str.19) #14
  %.not10 = icmp eq i32 %6, 0
  br i1 %.not10, label %12, label %7

7:                                                ; preds = %5
  %8 = tail call i32 @strcasecmp(ptr noundef nonnull %1, ptr noundef nonnull @.str.20) #14
  %.not11 = icmp eq i32 %8, 0
  br i1 %.not11, label %12, label %9

9:                                                ; preds = %7, %2
  %.not12 = icmp eq ptr %0, null
  br i1 %.not12, label %12, label %10

10:                                               ; preds = %9
  %11 = tail call i32 @git_config_bool(ptr noundef nonnull %0, ptr noundef %1) #15
  %.not13 = icmp eq i32 %11, 0
  %. = select i1 %.not13, i32 0, i32 2
  br label %12

12:                                               ; preds = %10, %9, %7, %5, %3
  %.0 = phi i32 [ 0, %3 ], [ 1, %5 ], [ 2, %7 ], [ -1, %9 ], [ %., %10 ]
  ret i32 %.0
}